target datalayout = "e-m:e-p270:32:32-p271:32:32-p272:64:64-i64:64-i128:128-f80:128-n8:16:32:64-S128"
target triple = "x86_64-pc-linux-gnu"

%"class.pbrt::RNG" = type { i64, i64 }
%"class.pbrt::MLTSampler" = type { i32, %"class.pbrt::RNG", float, float, i32, %"class.pstd::vector.18", i64, i8, i64, i32, i32 }
%"class.pstd::vector.18" = type { %"class.pstd::pmr::polymorphic_allocator.19", ptr, i64, i64 }
%"class.pstd::pmr::polymorphic_allocator.19" = type { ptr }

; Function Attrs: mustprogress nounwind uwtable
define dso_local void @_ZN4pbrt10MLTSampler6AcceptEv(ptr noundef nonnull align 8 dereferenceable(104) %0) #3 align 2 {
  %2 = alloca ptr, align 8
  store ptr %0, ptr %2, align 8, !tbaa !143
  %3 = load ptr, ptr %2, align 8
  %4 = getelementptr inbounds nuw %"class.pbrt::MLTSampler", ptr %3, i32 0, i32 7
  %5 = load i8, ptr %4, align 8, !tbaa !158, !range !83, !noundef !84
  %6 = trunc i8 %5 to i1
  br i1 %6, label %7, label %11

7:                                                ; preds = %1
  %8 = getelementptr inbounds nuw %"class.pbrt::MLTSampler", ptr %3, i32 0, i32 6
  %9 = load i64, ptr %8, align 8, !tbaa !159
  %10 = getelementptr inbounds nuw %"class.pbrt::MLTSampler", ptr %3, i32 0, i32 8
  store i64 %9, ptr %10, align 8, !tbaa !157
  br label %11

11:                                               ; preds = %7, %1
  ret void
}