; Function Attrs: mustprogress nofree norecurse nosync nounwind willreturn memory(argmem: readwrite) uwtable
define dso_local void @_ZN4pbrt10MLTSampler6AcceptEv(ptr noundef nonnull align 8 captures(none) dereferenceable(104) %0) local_unnamed_addr #8 align 2 {
  %2 = getelementptr inbounds nuw i8, ptr %0, i64 80
  %3 = load i8, ptr %2, align 8, !tbaa !257, !range !148, !noundef !149
  %4 = trunc nuw i8 %3 to i1
  br i1 %4, label %5, label %9

5:                                                ; preds = %1
  %6 = getelementptr inbounds nuw i8, ptr %0, i64 72
  %7 = load i64, ptr %6, align 8, !tbaa !258
  %8 = getelementptr inbounds nuw i8, ptr %0, i64 88
  store i64 %7, ptr %8, align 8, !tbaa !254
  br label %9

9:                                                ; preds = %5, %1
  ret void
}